target datalayout = "e-m:e-p270:32:32-p271:32:32-p272:64:64-i64:64-i128:128-f80:128-n8:16:32:64-S128"
target triple = "x86_64-pc-linux-gnu"

%struct.Abc_Ntk_t_ = type { i32, i32, ptr, ptr, ptr, ptr, ptr, ptr, ptr, ptr, ptr, ptr, ptr, [11 x i32], i32, i32, i32, i32, ptr, i32, ptr, ptr, i32, i32, i32, double, i32, %struct.Vec_Int_t_, ptr, ptr, ptr, ptr, ptr, float, i32, ptr, ptr, ptr, ptr, ptr, ptr, ptr, ptr, ptr, ptr, ptr, ptr, ptr, ptr, ptr, ptr, ptr, ptr, ptr, ptr, ptr, ptr }
%struct.Vec_Int_t_ = type { i32, i32, ptr }
%struct.Abc_Obj_t_ = type { ptr, ptr, i32, i32, %struct.Vec_Int_t_, %struct.Vec_Int_t_, %union.anon, %union.anon.0 }
%union.anon = type { ptr }
%union.anon.0 = type { ptr }
%struct.Vec_Ptr_t_ = type { i32, i32, ptr }

; Function Attrs: inlinehint nounwind uwtable
define internal ptr @Vec_PtrEntry(ptr noundef %0, i32 noundef %1) #2 {
  %3 = alloca ptr, align 8
  %4 = alloca i32, align 4
  store ptr %0, ptr %3, align 8, !tbaa !42
  store i32 %1, ptr %4, align 4, !tbaa !10
  %5 = load ptr, ptr %3, align 8, !tbaa !42
  %6 = getelementptr inbounds nuw %struct.Vec_Ptr_t_, ptr %5, i32 0, i32 2
  %7 = load ptr, ptr %6, align 8, !tbaa !52
  %8 = load i32, ptr %4, align 4, !tbaa !10
  %9 = sext i32 %8 to i64
  %10 = getelementptr inbounds ptr, ptr %7, i64 %9
  %11 = load ptr, ptr %10, align 8, !tbaa !55
  ret ptr %11
}

; Function Attrs: inlinehint nounwind uwtable
define internal i32 @Vec_IntEntry(ptr noundef %0, i32 noundef %1) #2 {
  %3 = alloca ptr, align 8
  %4 = alloca i32, align 4
  store ptr %0, ptr %3, align 8, !tbaa !8
  store i32 %1, ptr %4, align 4, !tbaa !10
  %5 = load ptr, ptr %3, align 8, !tbaa !8
  %6 = getelementptr inbounds nuw %struct.Vec_Int_t_, ptr %5, i32 0, i32 2
  %7 = load ptr, ptr %6, align 8, !tbaa !32
  %8 = load i32, ptr %4, align 4, !tbaa !10
  %9 = sext i32 %8 to i64
  %10 = getelementptr inbounds i32, ptr %7, i64 %9
  %11 = load i32, ptr %10, align 4, !tbaa !10
  ret i32 %11
}

; Function Attrs: inlinehint nounwind uwtable
define internal i32 @Abc_ObjIsLatch(ptr noundef %0) #2 {
  %2 = alloca ptr, align 8
  store ptr %0, ptr %2, align 8, !tbaa !37
  %3 = load ptr, ptr %2, align 8, !tbaa !37
  %4 = getelementptr inbounds nuw %struct.Abc_Obj_t_, ptr %3, i32 0, i32 3
  %5 = load i32, ptr %4, align 4
  %6 = and i32 %5, 15
  %7 = icmp eq i32 %6, 8
  %8 = zext i1 %7 to i32
  ret i32 %8
}

; Function Attrs: inlinehint nounwind uwtable
define internal ptr @Abc_NtkObj(ptr noundef %0, i32 noundef %1) #2 {
  %3 = alloca ptr, align 8
  %4 = alloca i32, align 4
  store ptr %0, ptr %3, align 8, !tbaa !3
  store i32 %1, ptr %4, align 4, !tbaa !10
  %5 = load ptr, ptr %3, align 8, !tbaa !3
  %6 = getelementptr inbounds nuw %struct.Abc_Ntk_t_, ptr %5, i32 0, i32 5
  %7 = load ptr, ptr %6, align 8, !tbaa !51
  %8 = load i32, ptr %4, align 4, !tbaa !10
  %9 = call ptr @Vec_PtrEntry(ptr noundef %7, i32 noundef %8)
  ret ptr %9
}

; Function Attrs: inlinehint nounwind uwtable
define internal i32 @Vec_PtrSize(ptr noundef %0) #2 {
  %2 = alloca ptr, align 8
  store ptr %0, ptr %2, align 8, !tbaa !42
  %3 = load ptr, ptr %2, align 8, !tbaa !42
  %4 = getelementptr inbounds nuw %struct.Vec_Ptr_t_, ptr %3, i32 0, i32 1
  %5 = load i32, ptr %4, align 4, !tbaa !57
  ret i32 %5
}

; Function Attrs: nounwind uwtable
define void @Abc_NtkRetimeInsertLatchValues(ptr noundef %0, ptr noundef %1) #0 {
  %3 = alloca ptr, align 8
  %4 = alloca ptr, align 8
  %5 = alloca ptr, align 8
  %6 = alloca i32, align 4
  %7 = alloca i32, align 4
  store ptr %0, ptr %3, align 8, !tbaa !3
  store ptr %1, ptr %4, align 8, !tbaa !8
  call void @llvm.lifetime.start.p0(i64 8, ptr %5) #10
  call void @llvm.lifetime.start.p0(i64 4, ptr %6) #10
  call void @llvm.lifetime.start.p0(i64 4, ptr %7) #10
  store i32 0, ptr %7, align 4, !tbaa !10
  store i32 0, ptr %6, align 4, !tbaa !10
  br label %8

8:                                                ; preds = %38, %2
  %9 = load i32, ptr %6, align 4, !tbaa !10
  %10 = load ptr, ptr %3, align 8, !tbaa !3
  %11 = getelementptr inbounds nuw %struct.Abc_Ntk_t_, ptr %10, i32 0, i32 5
  %12 = load ptr, ptr %11, align 8, !tbaa !51
  %13 = call i32 @Vec_PtrSize(ptr noundef %12)
  %14 = icmp slt i32 %9, %13
  br i1 %14, label %15, label %19

15:                                               ; preds = %8
  %16 = load ptr, ptr %3, align 8, !tbaa !3
  %17 = load i32, ptr %6, align 4, !tbaa !10
  %18 = call ptr @Abc_NtkObj(ptr noundef %16, i32 noundef %17)
  store ptr %18, ptr %5, align 8, !tbaa !37
  br label %19

19:                                               ; preds = %15, %8
  %20 = phi i1 [ false, %8 ], [ true, %15 ]
  br i1 %20, label %21, label %41

21:                                               ; preds = %19
  %22 = load ptr, ptr %5, align 8, !tbaa !37
  %23 = icmp eq ptr %22, null
  br i1 %23, label %24, label %25

24:                                               ; preds = %21
  br label %37

25:                                               ; preds = %21
  %26 = load ptr, ptr %5, align 8, !tbaa !37
  %27 = call i32 @Abc_ObjIsLatch(ptr noundef %26)
  %28 = icmp ne i32 %27, 0
  br i1 %28, label %29, label %36

29:                                               ; preds = %25
  %30 = load i32, ptr %7, align 4, !tbaa !10
  %31 = add nsw i32 %30, 1
  store i32 %31, ptr %7, align 4, !tbaa !10
  %32 = sext i32 %30 to i64
  %33 = inttoptr i64 %32 to ptr
  %34 = load ptr, ptr %5, align 8, !tbaa !37
  %35 = getelementptr inbounds nuw %struct.Abc_Obj_t_, ptr %34, i32 0, i32 7
  store ptr %33, ptr %35, align 8, !tbaa !39
  br label %36

36:                                               ; preds = %29, %25
  br label %37

37:                                               ; preds = %36, %24
  br label %38

38:                                               ; preds = %37
  %39 = load i32, ptr %6, align 4, !tbaa !10
  %40 = add nsw i32 %39, 1
  store i32 %40, ptr %6, align 4, !tbaa !10
  br label %8, !llvm.loop !60

41:                                               ; preds = %19
  store i32 0, ptr %6, align 4, !tbaa !10
  br label %42

42:                                               ; preds = %85, %41
  %43 = load i32, ptr %6, align 4, !tbaa !10
  %44 = load ptr, ptr %3, align 8, !tbaa !3
  %45 = getelementptr inbounds nuw %struct.Abc_Ntk_t_, ptr %44, i32 0, i32 5
  %46 = load ptr, ptr %45, align 8, !tbaa !51
  %47 = call i32 @Vec_PtrSize(ptr noundef %46)
  %48 = icmp slt i32 %43, %47
  br i1 %48, label %49, label %53

49:                                               ; preds = %42
  %50 = load ptr, ptr %3, align 8, !tbaa !3
  %51 = load i32, ptr %6, align 4, !tbaa !10
  %52 = call ptr @Abc_NtkObj(ptr noundef %50, i32 noundef %51)
  store ptr %52, ptr %5, align 8, !tbaa !37
  br label %53

53:                                               ; preds = %49, %42
  %54 = phi i1 [ false, %42 ], [ true, %49 ]
  br i1 %54, label %55, label %88

55:                                               ; preds = %53
  %56 = load ptr, ptr %5, align 8, !tbaa !37
  %57 = icmp eq ptr %56, null
  br i1 %57, label %58, label %59

58:                                               ; preds = %55
  br label %84

59:                                               ; preds = %55
  %60 = load ptr, ptr %5, align 8, !tbaa !37
  %61 = call i32 @Abc_ObjIsLatch(ptr noundef %60)
  %62 = icmp ne i32 %61, 0
  br i1 %62, label %63, label %83

63:                                               ; preds = %59
  %64 = load ptr, ptr %4, align 8, !tbaa !8
  %65 = icmp ne ptr %64, null
  br i1 %65, label %66, label %76

66:                                               ; preds = %63
  %67 = load ptr, ptr %4, align 8, !tbaa !8
  %68 = load ptr, ptr %5, align 8, !tbaa !37
  %69 = getelementptr inbounds nuw %struct.Abc_Obj_t_, ptr %68, i32 0, i32 7
  %70 = load ptr, ptr %69, align 8, !tbaa !39
  %71 = ptrtoint ptr %70 to i64
  %72 = trunc i64 %71 to i32
  %73 = call i32 @Vec_IntEntry(ptr noundef %67, i32 noundef %72)
  %74 = icmp ne i32 %73, 0
  %75 = select i1 %74, i32 2, i32 1
  br label %77

76:                                               ; preds = %63
  br label %77

77:                                               ; preds = %76, %66
  %78 = phi i32 [ %75, %66 ], [ 3, %76 ]
  %79 = sext i32 %78 to i64
  %80 = inttoptr i64 %79 to ptr
  %81 = load ptr, ptr %5, align 8, !tbaa !37
  %82 = getelementptr inbounds nuw %struct.Abc_Obj_t_, ptr %81, i32 0, i32 6
  store ptr %80, ptr %82, align 8, !tbaa !39
  br label %83

83:                                               ; preds = %77, %59
  br label %84

84:                                               ; preds = %83, %58
  br label %85

85:                                               ; preds = %84
  %86 = load i32, ptr %6, align 4, !tbaa !10
  %87 = add nsw i32 %86, 1
  store i32 %87, ptr %6, align 4, !tbaa !10
  br label %42, !llvm.loop !61

88:                                               ; preds = %53
  call void @llvm.lifetime.end.p0(i64 4, ptr %7) #10
  call void @llvm.lifetime.end.p0(i64 4, ptr %6) #10
  call void @llvm.lifetime.end.p0(i64 8, ptr %5) #10
  ret void
}