; Function Attrs: nofree norecurse nosync nounwind memory(readwrite, inaccessiblemem: none) uwtable
define void @Abc_NtkRetimeInsertLatchValues(ptr noundef readonly captures(none) %0, ptr noundef readonly %1) local_unnamed_addr #5 {
  %3 = getelementptr inbounds nuw i8, ptr %0, i64 32
  %4 = load ptr, ptr %3, align 8, !tbaa !45
  %5 = getelementptr i8, ptr %4, i64 4
  %.val2936 = load i32, ptr %5, align 4, !tbaa !34
  %6 = icmp sgt i32 %.val2936, 0
  br i1 %6, label %.lr.ph, label %.critedge2

.critedge.preheader:                              ; preds = %36
  %7 = icmp sgt i32 %.val29, 0
  br i1 %7, label %.lr.ph41, label %.critedge2

.lr.ph41:                                         ; preds = %.critedge.preheader
  %.not26 = icmp eq ptr %1, null
  %8 = getelementptr i8, ptr %1, i64 8
  br i1 %.not26, label %.lr.ph41.split.us, label %.lr.ph41.split

.lr.ph41.split.us:                                ; preds = %.lr.ph41, %.critedge.us
  %9 = phi ptr [ %19, %.critedge.us ], [ %37, %.lr.ph41 ]
  %indvars.iv47 = phi i64 [ %indvars.iv.next48, %.critedge.us ], [ 0, %.lr.ph41 ]
  %10 = getelementptr i8, ptr %9, i64 8
  %.val31.val.us = load ptr, ptr %10, align 8, !tbaa !36
  %11 = getelementptr inbounds nuw ptr, ptr %.val31.val.us, i64 %indvars.iv47
  %12 = load ptr, ptr %11, align 8, !tbaa !37
  %13 = icmp eq ptr %12, null
  br i1 %13, label %.critedge.us, label %14

14:                                               ; preds = %.lr.ph41.split.us
  %15 = getelementptr i8, ptr %12, i64 20
  %.val33.us = load i32, ptr %15, align 4
  %16 = and i32 %.val33.us, 15
  %.not.us = icmp eq i32 %16, 8
  br i1 %.not.us, label %17, label %.critedge.us

17:                                               ; preds = %14
  %18 = getelementptr inbounds nuw i8, ptr %12, i64 56
  store ptr inttoptr (i64 3 to ptr), ptr %18, align 8, !tbaa !38
  %.pre52 = load ptr, ptr %3, align 8, !tbaa !45
  br label %.critedge.us

.critedge.us:                                     ; preds = %17, %14, %.lr.ph41.split.us
  %19 = phi ptr [ %.pre52, %17 ], [ %9, %14 ], [ %9, %.lr.ph41.split.us ]
  %indvars.iv.next48 = add nuw nsw i64 %indvars.iv47, 1
  %20 = getelementptr i8, ptr %19, i64 4
  %.val.us = load i32, ptr %20, align 4, !tbaa !34
  %21 = sext i32 %.val.us to i64
  %22 = icmp slt i64 %indvars.iv.next48, %21
  br i1 %22, label %.lr.ph41.split.us, label %.critedge2, !llvm.loop !60

.lr.ph:                                           ; preds = %2, %36
  %23 = phi ptr [ %37, %36 ], [ %4, %2 ]
  %indvars.iv = phi i64 [ %indvars.iv.next, %36 ], [ 0, %2 ]
  %.038 = phi i32 [ %.1, %36 ], [ 0, %2 ]
  %24 = getelementptr i8, ptr %23, i64 8
  %.val32.val = load ptr, ptr %24, align 8, !tbaa !36
  %25 = getelementptr inbounds nuw ptr, ptr %.val32.val, i64 %indvars.iv
  %26 = load ptr, ptr %25, align 8, !tbaa !37
  %27 = icmp eq ptr %26, null
  br i1 %27, label %36, label %28

28:                                               ; preds = %.lr.ph
  %29 = getelementptr i8, ptr %26, i64 20
  %.val34 = load i32, ptr %29, align 4
  %30 = and i32 %.val34, 15
  %.not35 = icmp eq i32 %30, 8
  br i1 %.not35, label %31, label %36

31:                                               ; preds = %28
  %32 = add nsw i32 %.038, 1
  %33 = sext i32 %.038 to i64
  %34 = inttoptr i64 %33 to ptr
  %35 = getelementptr inbounds nuw i8, ptr %26, i64 64
  store ptr %34, ptr %35, align 8, !tbaa !38
  %.pre = load ptr, ptr %3, align 8, !tbaa !45
  br label %36

36:                                               ; preds = %.lr.ph, %31, %28
  %37 = phi ptr [ %23, %.lr.ph ], [ %.pre, %31 ], [ %23, %28 ]
  %.1 = phi i32 [ %.038, %.lr.ph ], [ %32, %31 ], [ %.038, %28 ]
  %indvars.iv.next = add nuw nsw i64 %indvars.iv, 1
  %38 = getelementptr i8, ptr %37, i64 4
  %.val29 = load i32, ptr %38, align 4, !tbaa !34
  %39 = sext i32 %.val29 to i64
  %40 = icmp slt i64 %indvars.iv.next, %39
  br i1 %40, label %.lr.ph, label %.critedge.preheader, !llvm.loop !61

.lr.ph41.split:                                   ; preds = %.lr.ph41, %.critedge
  %41 = phi ptr [ %58, %.critedge ], [ %37, %.lr.ph41 ]
  %indvars.iv44 = phi i64 [ %indvars.iv.next45, %.critedge ], [ 0, %.lr.ph41 ]
  %42 = getelementptr i8, ptr %41, i64 8
  %.val31.val = load ptr, ptr %42, align 8, !tbaa !36
  %43 = getelementptr inbounds nuw ptr, ptr %.val31.val, i64 %indvars.iv44
  %44 = load ptr, ptr %43, align 8, !tbaa !37
  %45 = icmp eq ptr %44, null
  br i1 %45, label %.critedge, label %46

46:                                               ; preds = %.lr.ph41.split
  %47 = getelementptr i8, ptr %44, i64 20
  %.val33 = load i32, ptr %47, align 4
  %48 = and i32 %.val33, 15
  %.not = icmp eq i32 %48, 8
  br i1 %.not, label %49, label %.critedge

49:                                               ; preds = %46
  %50 = getelementptr inbounds nuw i8, ptr %44, i64 64
  %51 = load ptr, ptr %50, align 8, !tbaa !38
  %52 = ptrtoint ptr %51 to i64
  %.val30 = load ptr, ptr %8, align 8, !tbaa !11
  %sext = shl i64 %52, 32
  %53 = ashr exact i64 %sext, 30
  %54 = getelementptr inbounds i8, ptr %.val30, i64 %53
  %55 = load i32, ptr %54, align 4, !tbaa !27
  %.not27 = icmp eq i32 %55, 0
  %56 = select i1 %.not27, ptr inttoptr (i64 1 to ptr), ptr inttoptr (i64 2 to ptr)
  %57 = getelementptr inbounds nuw i8, ptr %44, i64 56
  store ptr %56, ptr %57, align 8, !tbaa !38
  %.pre51 = load ptr, ptr %3, align 8, !tbaa !45
  br label %.critedge

.critedge:                                        ; preds = %.lr.ph41.split, %49, %46
  %58 = phi ptr [ %41, %.lr.ph41.split ], [ %.pre51, %49 ], [ %41, %46 ]
  %indvars.iv.next45 = add nuw nsw i64 %indvars.iv44, 1
  %59 = getelementptr i8, ptr %58, i64 4
  %.val = load i32, ptr %59, align 4, !tbaa !34
  %60 = sext i32 %.val to i64
  %61 = icmp slt i64 %indvars.iv.next45, %60
  br i1 %61, label %.lr.ph41.split, label %.critedge2, !llvm.loop !60

.critedge2:                                       ; preds = %.critedge, %.critedge.us, %2, %.critedge.preheader
  ret void
}